target datalayout = "e-m:e-p270:32:32-p271:32:32-p272:64:64-i64:64-i128:128-f80:128-n8:16:32:64-S128"
target triple = "x86_64-unknown-linux-gnu"

%"class.llvh::StringRef" = type { ptr, i64 }
%"class.llvh::cl::SubCommand" = type { %"class.llvh::StringRef", %"class.llvh::StringRef", %"class.llvh::SmallVector", %"class.llvh::SmallVector", %"class.llvh::StringMap", ptr }
%"class.llvh::SmallVector" = type { %"class.llvh::SmallVectorImpl.49", %"struct.llvh::SmallVectorStorage" }
%"class.llvh::SmallVectorImpl.49" = type { %"class.llvh::SmallVectorTemplateBase.50" }
%"class.llvh::SmallVectorTemplateBase.50" = type { %"class.llvh::SmallVectorTemplateCommon.51" }
%"class.llvh::SmallVectorTemplateCommon.51" = type { %"class.llvh::SmallVectorBase" }
%"class.llvh::SmallVectorBase" = type { ptr, i32, i32 }
%"struct.llvh::SmallVectorStorage" = type { [4 x %"struct.llvh::AlignedCharArrayUnion"] }
%"struct.llvh::AlignedCharArrayUnion" = type { %"struct.llvh::AlignedCharArray" }
%"struct.llvh::AlignedCharArray" = type { [8 x i8] }
%"class.llvh::StringMap" = type <{ %"class.llvh::StringMapImpl", %"class.llvh::MallocAllocator", [7 x i8] }>
%"class.llvh::StringMapImpl" = type { ptr, i32, i32, i32, i32 }
%"class.llvh::MallocAllocator" = type { i8 }
%"class.llvh::StringMapEntryBase" = type { i64 }

; Function Attrs: mustprogress nounwind uwtable
define linkonce_odr hidden void @_ZN4llvh15MallocAllocator10DeallocateEPKvm(ptr noundef nonnull align 1 dereferenceable(1) %this, ptr noundef %Ptr, i64 noundef %0) #0 comdat align 2 {
entry:
  %this.addr = alloca ptr, align 8
  %Ptr.addr = alloca ptr, align 8
  %.addr = alloca i64, align 8
  store ptr %this, ptr %this.addr, align 8
  store ptr %Ptr, ptr %Ptr.addr, align 8
  store i64 %0, ptr %.addr, align 8
  %1 = load ptr, ptr %Ptr.addr, align 8
  call void @free(ptr noundef %1) #6
  ret void
}

; Function Attrs: mustprogress nounwind uwtable
define linkonce_odr hidden noundef i64 @_ZNK4llvh18StringMapEntryBase12getKeyLengthEv(ptr noundef nonnull align 8 dereferenceable(8) %this) #0 comdat align 2 {
entry:
  %this.addr = alloca ptr, align 8
  store ptr %this, ptr %this.addr, align 8
  %this1 = load ptr, ptr %this.addr, align 8
  %StrLen = getelementptr inbounds %"class.llvh::StringMapEntryBase", ptr %this1, i32 0, i32 0
  %0 = load i64, ptr %StrLen, align 8
  ret i64 %0
}

; Function Attrs: mustprogress nounwind uwtable
define linkonce_odr hidden void @_ZN4llvh14StringMapEntryIPNS_2cl6OptionEE7DestroyINS_15MallocAllocatorEEEvRT_(ptr noundef nonnull align 8 dereferenceable(16) %this, ptr noundef nonnull align 1 dereferenceable(1) %Allocator) #0 comdat align 2 {
entry:
  %this.addr = alloca ptr, align 8
  %Allocator.addr = alloca ptr, align 8
  %AllocSize = alloca i64, align 8
  store ptr %this, ptr %this.addr, align 8
  store ptr %Allocator, ptr %Allocator.addr, align 8
  %this1 = load ptr, ptr %this.addr, align 8
  %call = call noundef i64 @_ZNK4llvh18StringMapEntryBase12getKeyLengthEv(ptr noundef nonnull align 8 dereferenceable(8) %this1)
  %add = add i64 16, %call
  %add2 = add i64 %add, 1
  store i64 %add2, ptr %AllocSize, align 8
  %0 = load ptr, ptr %Allocator.addr, align 8
  %1 = load i64, ptr %AllocSize, align 8
  call void @_ZN4llvh15MallocAllocator10DeallocateEPKvm(ptr noundef nonnull align 1 dereferenceable(1) %0, ptr noundef %this1, i64 noundef %1)
  ret void
}

; Function Attrs: mustprogress nounwind uwtable
define linkonce_odr hidden noundef ptr @_ZN4llvh13StringMapImpl15getTombstoneValEv() #0 comdat align 2 {
entry:
  %Val = alloca i64, align 8
  store i64 -1, ptr %Val, align 8
  %0 = load i64, ptr %Val, align 8
  %shl = shl i64 %0, 3
  store i64 %shl, ptr %Val, align 8
  %1 = load i64, ptr %Val, align 8
  %2 = inttoptr i64 %1 to ptr
  ret ptr %2
}

; Function Attrs: mustprogress nounwind uwtable
define linkonce_odr hidden noundef zeroext i1 @_ZNK4llvh13StringMapImpl5emptyEv(ptr noundef nonnull align 8 dereferenceable(24) %this) #0 comdat align 2 {
entry:
  %this.addr = alloca ptr, align 8
  store ptr %this, ptr %this.addr, align 8
  %this1 = load ptr, ptr %this.addr, align 8
  %NumItems = getelementptr inbounds %"class.llvh::StringMapImpl", ptr %this1, i32 0, i32 2
  %0 = load i32, ptr %NumItems, align 4
  %cmp = icmp eq i32 %0, 0
  ret i1 %cmp
}

; Function Attrs: mustprogress nounwind uwtable
define linkonce_odr hidden void @_ZN4llvh23SmallVectorTemplateBaseIPNS_2cl6OptionELb1EE13destroy_rangeEPS3_S5_(ptr noundef %0, ptr noundef %1) #0 comdat align 2 {
entry:
  %.addr = alloca ptr, align 8
  %.addr1 = alloca ptr, align 8
  store ptr %0, ptr %.addr, align 8
  store ptr %1, ptr %.addr1, align 8
  ret void
}

; Function Attrs: mustprogress nounwind uwtable
define linkonce_odr hidden noundef i64 @_ZNK4llvh15SmallVectorBase4sizeEv(ptr noundef nonnull align 8 dereferenceable(16) %this) #0 comdat align 2 {
entry:
  %this.addr = alloca ptr, align 8
  store ptr %this, ptr %this.addr, align 8
  %this1 = load ptr, ptr %this.addr, align 8
  %Size = getelementptr inbounds %"class.llvh::SmallVectorBase", ptr %this1, i32 0, i32 1
  %0 = load i32, ptr %Size, align 8
  %conv = zext i32 %0 to i64
  ret i64 %conv
}

; Function Attrs: mustprogress nounwind uwtable
define linkonce_odr hidden void @_ZN4llvh9StringMapIPNS_2cl6OptionENS_15MallocAllocatorEE5clearEv(ptr noundef nonnull align 8 dereferenceable(25) %this) #0 comdat align 2 {
entry:
  %this.addr = alloca ptr, align 8
  %I = alloca i32, align 4
  %E = alloca i32, align 4
  %Bucket = alloca ptr, align 8
  store ptr %this, ptr %this.addr, align 8
  %this1 = load ptr, ptr %this.addr, align 8
  %call = call noundef zeroext i1 @_ZNK4llvh13StringMapImpl5emptyEv(ptr noundef nonnull align 8 dereferenceable(24) %this1)
  br i1 %call, label %if.then, label %if.end

if.then:                                          ; preds = %entry
  br label %return

if.end:                                           ; preds = %entry
  store i32 0, ptr %I, align 4
  %NumBuckets = getelementptr inbounds %"class.llvh::StringMapImpl", ptr %this1, i32 0, i32 1
  %0 = load i32, ptr %NumBuckets, align 8
  store i32 %0, ptr %E, align 4
  br label %for.cond

for.cond:                                         ; preds = %for.inc, %if.end
  %1 = load i32, ptr %I, align 4
  %2 = load i32, ptr %E, align 4
  %cmp = icmp ne i32 %1, %2
  br i1 %cmp, label %for.body, label %for.end

for.body:                                         ; preds = %for.cond
  %TheTable = getelementptr inbounds %"class.llvh::StringMapImpl", ptr %this1, i32 0, i32 0
  %3 = load ptr, ptr %TheTable, align 8
  %4 = load i32, ptr %I, align 4
  %idxprom = zext i32 %4 to i64
  %arrayidx = getelementptr inbounds ptr, ptr %3, i64 %idxprom
  store ptr %arrayidx, ptr %Bucket, align 8
  %5 = load ptr, ptr %Bucket, align 8
  %6 = load ptr, ptr %5, align 8
  %tobool = icmp ne ptr %6, null
  br i1 %tobool, label %land.lhs.true, label %if.end5

land.lhs.true:                                    ; preds = %for.body
  %7 = load ptr, ptr %Bucket, align 8
  %8 = load ptr, ptr %7, align 8
  %call2 = call noundef ptr @_ZN4llvh13StringMapImpl15getTombstoneValEv()
  %cmp3 = icmp ne ptr %8, %call2
  br i1 %cmp3, label %if.then4, label %if.end5

if.then4:                                         ; preds = %land.lhs.true
  %9 = load ptr, ptr %Bucket, align 8
  %10 = load ptr, ptr %9, align 8
  %Allocator = getelementptr inbounds %"class.llvh::StringMap", ptr %this1, i32 0, i32 1
  call void @_ZN4llvh14StringMapEntryIPNS_2cl6OptionEE7DestroyINS_15MallocAllocatorEEEvRT_(ptr noundef nonnull align 8 dereferenceable(16) %10, ptr noundef nonnull align 1 dereferenceable(1) %Allocator)
  br label %if.end5

if.end5:                                          ; preds = %if.then4, %land.lhs.true, %for.body
  %11 = load ptr, ptr %Bucket, align 8
  store ptr null, ptr %11, align 8
  br label %for.inc

for.inc:                                          ; preds = %if.end5
  %12 = load i32, ptr %I, align 4
  %inc = add i32 %12, 1
  store i32 %inc, ptr %I, align 4
  br label %for.cond, !llvm.loop !4

for.end:                                          ; preds = %for.cond
  %NumItems = getelementptr inbounds %"class.llvh::StringMapImpl", ptr %this1, i32 0, i32 2
  store i32 0, ptr %NumItems, align 4
  %NumTombstones = getelementptr inbounds %"class.llvh::StringMapImpl", ptr %this1, i32 0, i32 3
  store i32 0, ptr %NumTombstones, align 8
  br label %return

return:                                           ; preds = %for.end, %if.then
  ret void
}

; Function Attrs: mustprogress nounwind uwtable
define linkonce_odr hidden void @_ZN4llvh15SmallVectorImplIPNS_2cl6OptionEE5clearEv(ptr noundef nonnull align 8 dereferenceable(16) %this) #0 comdat align 2 {
entry:
  %this.addr.i5 = alloca ptr, align 8
  %this.addr.i3 = alloca ptr, align 8
  %this.addr.i = alloca ptr, align 8
  %this.addr = alloca ptr, align 8
  store ptr %this, ptr %this.addr, align 8
  %this1 = load ptr, ptr %this.addr, align 8
  store ptr %this1, ptr %this.addr.i5, align 8
  %this1.i6 = load ptr, ptr %this.addr.i5, align 8
  %0 = load ptr, ptr %this1.i6, align 8
  store ptr %this1, ptr %this.addr.i, align 8
  %this1.i = load ptr, ptr %this.addr.i, align 8
  store ptr %this1.i, ptr %this.addr.i3, align 8
  %this1.i4 = load ptr, ptr %this.addr.i3, align 8
  %1 = load ptr, ptr %this1.i4, align 8
  %call2.i = call noundef i64 @_ZNK4llvh15SmallVectorBase4sizeEv(ptr noundef nonnull align 8 dereferenceable(16) %this1.i)
  %add.ptr.i = getelementptr inbounds ptr, ptr %1, i64 %call2.i
  call void @_ZN4llvh23SmallVectorTemplateBaseIPNS_2cl6OptionELb1EE13destroy_rangeEPS3_S5_(ptr noundef %0, ptr noundef %add.ptr.i)
  %Size = getelementptr inbounds %"class.llvh::SmallVectorBase", ptr %this1, i32 0, i32 1
  store i32 0, ptr %Size, align 8
  ret void
}

; Function Attrs: mustprogress nounwind uwtable
define hidden void @_ZN4llvh2cl10SubCommand5resetEv(ptr noundef nonnull align 8 dereferenceable(168) %this) #0 align 2 {
entry:
  %this.addr = alloca ptr, align 8
  store ptr %this, ptr %this.addr, align 8
  %this1 = load ptr, ptr %this.addr, align 8
  %PositionalOpts = getelementptr inbounds %"class.llvh::cl::SubCommand", ptr %this1, i32 0, i32 2
  call void @_ZN4llvh15SmallVectorImplIPNS_2cl6OptionEE5clearEv(ptr noundef nonnull align 8 dereferenceable(16) %PositionalOpts)
  %SinkOpts = getelementptr inbounds %"class.llvh::cl::SubCommand", ptr %this1, i32 0, i32 3
  call void @_ZN4llvh15SmallVectorImplIPNS_2cl6OptionEE5clearEv(ptr noundef nonnull align 8 dereferenceable(16) %SinkOpts)
  %OptionsMap = getelementptr inbounds %"class.llvh::cl::SubCommand", ptr %this1, i32 0, i32 4
  call void @_ZN4llvh9StringMapIPNS_2cl6OptionENS_15MallocAllocatorEE5clearEv(ptr noundef nonnull align 8 dereferenceable(25) %OptionsMap)
  %ConsumeAfterOpt = getelementptr inbounds %"class.llvh::cl::SubCommand", ptr %this1, i32 0, i32 5
  store ptr null, ptr %ConsumeAfterOpt, align 8
  ret void
}