; Function Attrs: mustprogress nounwind uwtable
define hidden void @_ZN4llvh2cl10SubCommand5resetEv(ptr nocapture noundef nonnull align 8 dereferenceable(168) %this) local_unnamed_addr #0 align 2 {
entry:
  %Size.i.i = getelementptr inbounds i8, ptr %this, i64 40
  store i32 0, ptr %Size.i.i, align 8
  %Size.i.i1 = getelementptr inbounds i8, ptr %this, i64 88
  store i32 0, ptr %Size.i.i1, align 8
  %OptionsMap = getelementptr inbounds i8, ptr %this, i64 128
  %NumItems.i.i = getelementptr inbounds i8, ptr %this, i64 140
  %0 = load i32, ptr %NumItems.i.i, align 4
  %cmp.i.i = icmp eq i32 %0, 0
  br i1 %cmp.i.i, label %_ZN4llvh9StringMapIPNS_2cl6OptionENS_15MallocAllocatorEE5clearEv.exit, label %if.end.i

if.end.i:                                         ; preds = %entry
  %NumBuckets.i = getelementptr inbounds i8, ptr %this, i64 136
  %1 = load i32, ptr %NumBuckets.i, align 8
  %cmp.not6.i = icmp eq i32 %1, 0
  br i1 %cmp.not6.i, label %for.end.i, label %for.body.preheader.i

for.body.preheader.i:                             ; preds = %if.end.i
  %2 = zext i32 %1 to i64
  br label %for.body.i

for.body.i:                                       ; preds = %if.end5.i, %for.body.preheader.i
  %indvars.iv.i = phi i64 [ 0, %for.body.preheader.i ], [ %indvars.iv.next.i, %if.end5.i ]
  %3 = load ptr, ptr %OptionsMap, align 8
  %arrayidx.i = getelementptr inbounds ptr, ptr %3, i64 %indvars.iv.i
  %4 = load ptr, ptr %arrayidx.i, align 8
  %magicptr.i = ptrtoint ptr %4 to i64
  switch i64 %magicptr.i, label %if.then4.i [
    i64 0, label %if.end5.i
    i64 -8, label %if.end5.i
  ]

if.then4.i:                                       ; preds = %for.body.i
  tail call void @free(ptr noundef nonnull %4) #27
  br label %if.end5.i

if.end5.i:                                        ; preds = %if.then4.i, %for.body.i, %for.body.i
  store ptr null, ptr %arrayidx.i, align 8
  %indvars.iv.next.i = add nuw nsw i64 %indvars.iv.i, 1
  %cmp.not.i = icmp eq i64 %indvars.iv.next.i, %2
  br i1 %cmp.not.i, label %for.end.i, label %for.body.i, !llvm.loop !64

for.end.i:                                        ; preds = %if.end5.i, %if.end.i
  store i32 0, ptr %NumItems.i.i, align 4
  %NumTombstones.i = getelementptr inbounds i8, ptr %this, i64 144
  store i32 0, ptr %NumTombstones.i, align 8
  br label %_ZN4llvh9StringMapIPNS_2cl6OptionENS_15MallocAllocatorEE5clearEv.exit

_ZN4llvh9StringMapIPNS_2cl6OptionENS_15MallocAllocatorEE5clearEv.exit: ; preds = %entry, %for.end.i
  %ConsumeAfterOpt = getelementptr inbounds i8, ptr %this, i64 160
  store ptr null, ptr %ConsumeAfterOpt, align 8
  ret void
}